; Function Attrs: mustprogress uwtable
define void @_ZN18duckdb_fastpforlib8internal14__fastunpack57EPKjPm(ptr noalias noundef %0, ptr noalias noundef initializes((0, 32)) %1) local_unnamed_addr #5 {
  %3 = alloca ptr, align 8
  tail call void @llvm.experimental.noalias.scope.decl(metadata !8656)
  tail call void @llvm.experimental.noalias.scope.decl(metadata !8659)
  %4 = load i32, ptr %0, align 4, !tbaa !7, !noalias !8662
  %5 = zext i32 %4 to i64
  %6 = getelementptr inbounds nuw i8, ptr %0, i64 4
  %7 = load i32, ptr %6, align 4, !tbaa !7, !noalias !8662
  %8 = and i32 %7, 33554431
  %9 = zext nneg i32 %8 to i64
  %10 = shl nuw nsw i64 %9, 32
  %11 = or disjoint i64 %10, %5
  store i64 %11, ptr %1, align 8, !tbaa !9, !alias.scope !8662
  tail call void @llvm.experimental.noalias.scope.decl(metadata !8663)
  %12 = getelementptr inbounds nuw i8, ptr %1, i64 8
  tail call void @llvm.experimental.noalias.scope.decl(metadata !8666)
  %13 = lshr i32 %7, 25
  %14 = zext nneg i32 %13 to i64
  %15 = getelementptr inbounds nuw i8, ptr %0, i64 8
  %16 = load i32, ptr %15, align 4, !tbaa !7, !noalias !8669
  %17 = zext i32 %16 to i64
  %18 = shl nuw nsw i64 %17, 7
  %19 = or disjoint i64 %18, %14
  %20 = getelementptr inbounds nuw i8, ptr %0, i64 12
  %21 = load i32, ptr %20, align 4, !tbaa !7, !noalias !8669
  %22 = and i32 %21, 262143
  %23 = zext nneg i32 %22 to i64
  %24 = shl nuw nsw i64 %23, 39
  %25 = or disjoint i64 %24, %19
  store i64 %25, ptr %12, align 8, !tbaa !9, !alias.scope !8669
  tail call void @llvm.experimental.noalias.scope.decl(metadata !8670)
  %26 = getelementptr inbounds nuw i8, ptr %1, i64 16
  tail call void @llvm.experimental.noalias.scope.decl(metadata !8673)
  %27 = lshr i32 %21, 18
  %28 = zext nneg i32 %27 to i64
  %29 = getelementptr inbounds nuw i8, ptr %0, i64 16
  %30 = load i32, ptr %29, align 4, !tbaa !7, !noalias !8676
  %31 = zext i32 %30 to i64
  %32 = shl nuw nsw i64 %31, 14
  %33 = or disjoint i64 %32, %28
  %34 = getelementptr inbounds nuw i8, ptr %0, i64 20
  %35 = load i32, ptr %34, align 4, !tbaa !7, !noalias !8676
  %36 = and i32 %35, 2047
  %37 = zext nneg i32 %36 to i64
  %38 = shl nuw nsw i64 %37, 46
  %39 = or disjoint i64 %38, %33
  store i64 %39, ptr %26, align 8, !tbaa !9, !alias.scope !8676
  tail call void @llvm.experimental.noalias.scope.decl(metadata !8677)
  %40 = getelementptr inbounds nuw i8, ptr %1, i64 24
  tail call void @llvm.experimental.noalias.scope.decl(metadata !8680)
  %41 = lshr i32 %35, 11
  %42 = zext nneg i32 %41 to i64
  %43 = getelementptr inbounds nuw i8, ptr %0, i64 24
  %44 = load i32, ptr %43, align 4, !tbaa !7, !noalias !8683
  %45 = zext i32 %44 to i64
  %46 = shl nuw nsw i64 %45, 21
  %47 = or disjoint i64 %46, %42
  %48 = getelementptr inbounds nuw i8, ptr %0, i64 28
  store ptr %48, ptr %3, align 8, !tbaa !1879, !noalias !8683
  %49 = load i32, ptr %48, align 4, !tbaa !7, !noalias !8683
  %50 = and i32 %49, 15
  %51 = zext nneg i32 %50 to i64
  %52 = shl nuw nsw i64 %51, 53
  %53 = or disjoint i64 %52, %47
  store i64 %53, ptr %40, align 8, !tbaa !9, !alias.scope !8683
  call void @_ZN18duckdb_fastpforlib8internal8UnrollerILt57ELt4EE6UnpackERrPKjPm(ptr noundef nonnull align 8 dereferenceable(8) %3, ptr noundef nonnull %1)
  ret void
}